target datalayout = "e-m:e-p270:32:32-p271:32:32-p272:64:64-i64:64-i128:128-f80:128-n8:16:32:64-S128"
target triple = "x86_64-pc-linux-gnu"

%struct.darktable_t = type { %struct.dt_codepath_t, i32, i32, ptr, ptr, ptr, ptr, ptr, ptr, ptr, ptr, ptr, ptr, ptr, ptr, ptr, ptr, ptr, ptr, ptr, ptr, ptr, ptr, ptr, ptr, ptr, ptr, ptr, ptr, ptr, [64 x %struct.dt_pthread_mutex_t], %struct.dt_pthread_mutex_t, %struct.dt_pthread_mutex_t, %struct.dt_pthread_mutex_t, %struct.dt_pthread_mutex_t, %struct.dt_pthread_mutex_t, ptr, ptr, ptr, ptr, ptr, ptr, ptr, ptr, ptr, ptr, ptr, ptr, ptr, %struct.dt_lua_state_t, ptr, double, ptr, i32, [47 x i32], i32, i32, ptr, ptr, %struct.dt_sys_resources_t, %struct.dt_backthumb_t, %struct.dt_gimp_t }
%struct.dt_codepath_t = type { i8, [3 x i8] }
%struct.dt_pthread_mutex_t = type { %union.pthread_mutex_t }
%union.pthread_mutex_t = type { %struct.__pthread_mutex_s }
%struct.__pthread_mutex_s = type { i32, i32, i32, i32, i32, i16, i16, %struct.__pthread_internal_list }
%struct.__pthread_internal_list = type { ptr, ptr }
%struct.dt_lua_state_t = type { i32 }
%struct.dt_sys_resources_t = type { i64, i64, ptr, ptr, i32 }
%struct.dt_backthumb_t = type { double, double, i32, i32, i32, i32 }
%struct.dt_gimp_t = type { i32, ptr, ptr, i32, i32 }
%struct.dt_datetime_t = type { i32, i32, i32, i32, i32, i32, i32 }
%struct.dt_image_t = type { i32, i32, float, float, float, float, float, float, float, [64 x i8], [64 x i8], [128 x i8], [64 x i8], [64 x i8], [64 x i8], [64 x i8], i64, i32, %union.dt_image_correction_data_t, [64 x i8], [64 x i8], [64 x i8], [128 x i8], i32, [256 x i8], i32, i32, i32, i32, i32, i32, i32, i32, i32, i32, float, i32, i32, i32, i32, i32, i32, i64, i64, i64, i64, i32, [12 x i8], %struct.dt_iop_buffer_dsc_t, [9 x float], ptr, i32, i32, %struct.dt_image_raw_parameters_t, %struct.dt_image_geoloc_t, %struct._color_harmony_t, i16, [4 x i16], i32, i32, float, float, [4 x float], [4 x [3 x float]], [4 x float], ptr, ptr, i32, i32, [8 x i8] }
%union.dt_image_correction_data_t = type { %struct.anon.0 }
%struct.anon.0 = type { i32, float, [11 x float], [11 x float], [11 x float], [11 x float], [11 x float] }
%struct.dt_iop_buffer_dsc_t = type { i32, i32, i32, [6 x [6 x i8]], %struct.anon.3, [12 x i8], %struct.anon.4, [4 x float], i32, [12 x i8] }
%struct.anon.3 = type { i16, i16 }
%struct.anon.4 = type { i32, [12 x i8], [4 x float] }
%struct.dt_image_raw_parameters_t = type { i32 }
%struct.dt_image_geoloc_t = type { double, double, double }
%struct._color_harmony_t = type { i32, i32, i32 }

@darktable = external global %struct.darktable_t, align 8

; Function Attrs: nounwind uwtable
define ptr @dt_datetime_exif_to_gdatetime(ptr noundef %0, ptr noundef %1) #0 {
  %3 = alloca ptr, align 8
  %4 = alloca ptr, align 8
  %5 = alloca ptr, align 8
  %6 = alloca %struct.dt_datetime_t, align 4
  %7 = alloca ptr, align 8
  %8 = alloca ptr, align 8
  %9 = alloca i32, align 4
  store ptr %0, ptr %4, align 8, !tbaa !60
  store ptr %1, ptr %5, align 8, !tbaa !83
  call void @llvm.lifetime.start.p0(i64 28, ptr %6) #7
  %10 = load ptr, ptr %4, align 8, !tbaa !60
  %11 = call i32 @dt_datetime_exif_to_numbers(ptr noundef %6, ptr noundef %10)
  %12 = icmp ne i32 %11, 0
  br i1 %12, label %13, label %48

13:                                               ; preds = %2
  call void @llvm.lifetime.start.p0(i64 8, ptr %7) #7
  %14 = load ptr, ptr %5, align 8, !tbaa !83
  %15 = getelementptr inbounds nuw %struct.dt_datetime_t, ptr %6, i32 0, i32 0
  %16 = load i32, ptr %15, align 4, !tbaa !52
  %17 = getelementptr inbounds nuw %struct.dt_datetime_t, ptr %6, i32 0, i32 1
  %18 = load i32, ptr %17, align 4, !tbaa !54
  %19 = getelementptr inbounds nuw %struct.dt_datetime_t, ptr %6, i32 0, i32 2
  %20 = load i32, ptr %19, align 4, !tbaa !55
  %21 = getelementptr inbounds nuw %struct.dt_datetime_t, ptr %6, i32 0, i32 3
  %22 = load i32, ptr %21, align 4, !tbaa !56
  %23 = getelementptr inbounds nuw %struct.dt_datetime_t, ptr %6, i32 0, i32 4
  %24 = load i32, ptr %23, align 4, !tbaa !57
  %25 = getelementptr inbounds nuw %struct.dt_datetime_t, ptr %6, i32 0, i32 5
  %26 = load i32, ptr %25, align 4, !tbaa !58
  %27 = sitofp i32 %26 to double
  %28 = call ptr @g_date_time_new(ptr noundef %14, i32 noundef %16, i32 noundef %18, i32 noundef %20, i32 noundef %22, i32 noundef %24, double noundef %27)
  store ptr %28, ptr %7, align 8, !tbaa !51
  %29 = load ptr, ptr %7, align 8, !tbaa !51
  %30 = icmp ne ptr %29, null
  br i1 %30, label %31, label %45

31:                                               ; preds = %13
  %32 = getelementptr inbounds nuw %struct.dt_datetime_t, ptr %6, i32 0, i32 6
  %33 = load i32, ptr %32, align 4, !tbaa !59
  %34 = icmp ne i32 %33, 0
  br i1 %34, label %35, label %44

35:                                               ; preds = %31
  call void @llvm.lifetime.start.p0(i64 8, ptr %8) #7
  %36 = load ptr, ptr %7, align 8, !tbaa !51
  %37 = getelementptr inbounds nuw %struct.dt_datetime_t, ptr %6, i32 0, i32 6
  %38 = load i32, ptr %37, align 4, !tbaa !59
  %39 = mul nsw i32 %38, 1000
  %40 = sext i32 %39 to i64
  %41 = call ptr @g_date_time_add(ptr noundef %36, i64 noundef %40)
  store ptr %41, ptr %8, align 8, !tbaa !51
  %42 = load ptr, ptr %7, align 8, !tbaa !51
  call void @g_date_time_unref(ptr noundef %42)
  %43 = load ptr, ptr %8, align 8, !tbaa !51
  store ptr %43, ptr %3, align 8
  store i32 1, ptr %9, align 4
  call void @llvm.lifetime.end.p0(i64 8, ptr %8) #7
  br label %47

44:                                               ; preds = %31
  br label %45

45:                                               ; preds = %44, %13
  %46 = load ptr, ptr %7, align 8, !tbaa !51
  store ptr %46, ptr %3, align 8
  store i32 1, ptr %9, align 4
  br label %47

47:                                               ; preds = %45, %35
  call void @llvm.lifetime.end.p0(i64 8, ptr %7) #7
  br label %49

48:                                               ; preds = %2
  store ptr null, ptr %3, align 8
  store i32 1, ptr %9, align 4
  br label %49

49:                                               ; preds = %48, %47
  call void @llvm.lifetime.end.p0(i64 28, ptr %6) #7
  %50 = load ptr, ptr %3, align 8
  ret ptr %50
}

; Function Attrs: nounwind uwtable
define void @dt_datetime_exif_to_img(ptr noundef %0, ptr noundef %1) #0 {
  %3 = alloca ptr, align 8
  %4 = alloca ptr, align 8
  %5 = alloca ptr, align 8
  store ptr %0, ptr %3, align 8, !tbaa !68
  store ptr %1, ptr %4, align 8, !tbaa !60
  %6 = load ptr, ptr %4, align 8, !tbaa !60
  %7 = icmp ne ptr %6, null
  br i1 %7, label %9, label %8

8:                                                ; preds = %2
  br label %26

9:                                                ; preds = %2
  call void @llvm.lifetime.start.p0(i64 8, ptr %5) #7
  %10 = load ptr, ptr %4, align 8, !tbaa !60
  %11 = load ptr, ptr getelementptr inbounds nuw (%struct.darktable_t, ptr @darktable, i32 0, i32 57), align 8, !tbaa !6
  %12 = call ptr @dt_datetime_exif_to_gdatetime(ptr noundef %10, ptr noundef %11)
  store ptr %12, ptr %5, align 8, !tbaa !51
  %13 = load ptr, ptr %5, align 8, !tbaa !51
  %14 = icmp ne ptr %13, null
  br i1 %14, label %15, label %22

15:                                               ; preds = %9
  %16 = load ptr, ptr %5, align 8, !tbaa !51
  %17 = load ptr, ptr getelementptr inbounds nuw (%struct.darktable_t, ptr @darktable, i32 0, i32 58), align 8, !tbaa !48
  %18 = call i64 @g_date_time_difference(ptr noundef %16, ptr noundef %17)
  %19 = load ptr, ptr %3, align 8, !tbaa !68
  %20 = getelementptr inbounds nuw %struct.dt_image_t, ptr %19, i32 0, i32 16
  store i64 %18, ptr %20, align 8, !tbaa !70
  %21 = load ptr, ptr %5, align 8, !tbaa !51
  call void @g_date_time_unref(ptr noundef %21)
  br label %25

22:                                               ; preds = %9
  %23 = load ptr, ptr %3, align 8, !tbaa !68
  %24 = getelementptr inbounds nuw %struct.dt_image_t, ptr %23, i32 0, i32 16
  store i64 0, ptr %24, align 8, !tbaa !70
  br label %25

25:                                               ; preds = %22, %15
  call void @llvm.lifetime.end.p0(i64 8, ptr %5) #7
  br label %26

26:                                               ; preds = %25, %8
  ret void
}