; Function Attrs: nounwind uwtable
define void @dt_datetime_exif_to_img(ptr noundef writeonly captures(none) %0, ptr noundef %1) local_unnamed_addr #0 {
  %3 = alloca %struct.dt_datetime_t, align 4
  %.not = icmp eq ptr %1, null
  br i1 %.not, label %35, label %4

4:                                                ; preds = %2
  %5 = load ptr, ptr getelementptr inbounds nuw (i8, ptr @darktable, i64 3328), align 8, !tbaa !6
  call void @llvm.lifetime.start.p0(i64 28, ptr nonnull %3) #7
  %6 = call i32 @dt_datetime_exif_to_numbers(ptr noundef nonnull %3, ptr noundef nonnull %1)
  %.not.i = icmp eq i32 %6, 0
  br i1 %.not.i, label %dt_datetime_exif_to_gdatetime.exit.thread, label %7

dt_datetime_exif_to_gdatetime.exit.thread:        ; preds = %4
  call void @llvm.lifetime.end.p0(i64 28, ptr nonnull %3) #7
  br label %33

7:                                                ; preds = %4
  %8 = load i32, ptr %3, align 4, !tbaa !49
  %9 = getelementptr inbounds nuw i8, ptr %3, i64 4
  %10 = load i32, ptr %9, align 4, !tbaa !51
  %11 = getelementptr inbounds nuw i8, ptr %3, i64 8
  %12 = load i32, ptr %11, align 4, !tbaa !52
  %13 = getelementptr inbounds nuw i8, ptr %3, i64 12
  %14 = load i32, ptr %13, align 4, !tbaa !53
  %15 = getelementptr inbounds nuw i8, ptr %3, i64 16
  %16 = load i32, ptr %15, align 4, !tbaa !54
  %17 = getelementptr inbounds nuw i8, ptr %3, i64 20
  %18 = load i32, ptr %17, align 4, !tbaa !55
  %19 = sitofp i32 %18 to double
  %20 = call ptr @g_date_time_new(ptr noundef %5, i32 noundef %8, i32 noundef %10, i32 noundef %12, i32 noundef %14, i32 noundef %16, double noundef %19) #7
  %21 = icmp ne ptr %20, null
  %22 = getelementptr inbounds nuw i8, ptr %3, i64 24
  %23 = load i32, ptr %22, align 4
  %24 = icmp ne i32 %23, 0
  %or.cond.i = select i1 %21, i1 %24, i1 false
  br i1 %or.cond.i, label %25, label %dt_datetime_exif_to_gdatetime.exit

25:                                               ; preds = %7
  %26 = mul nsw i32 %23, 1000
  %27 = sext i32 %26 to i64
  %28 = call ptr @g_date_time_add(ptr noundef nonnull %20, i64 noundef %27) #7
  call void @g_date_time_unref(ptr noundef nonnull %20) #7
  br label %dt_datetime_exif_to_gdatetime.exit

dt_datetime_exif_to_gdatetime.exit:               ; preds = %7, %25
  %.1.i = phi ptr [ %28, %25 ], [ %20, %7 ]
  call void @llvm.lifetime.end.p0(i64 28, ptr nonnull %3) #7
  %.not8 = icmp eq ptr %.1.i, null
  br i1 %.not8, label %33, label %29

29:                                               ; preds = %dt_datetime_exif_to_gdatetime.exit
  %30 = load ptr, ptr getelementptr inbounds nuw (i8, ptr @darktable, i64 3336), align 8, !tbaa !48
  %31 = call i64 @g_date_time_difference(ptr noundef nonnull %.1.i, ptr noundef %30) #7
  %32 = getelementptr inbounds nuw i8, ptr %0, i64 552
  store i64 %31, ptr %32, align 8, !tbaa !60
  call void @g_date_time_unref(ptr noundef nonnull %.1.i) #7
  br label %35

33:                                               ; preds = %dt_datetime_exif_to_gdatetime.exit.thread, %dt_datetime_exif_to_gdatetime.exit
  %34 = getelementptr inbounds nuw i8, ptr %0, i64 552
  store i64 0, ptr %34, align 8, !tbaa !60
  br label %35

35:                                               ; preds = %29, %33, %2
  ret void
}